target datalayout = "e-m:e-p270:32:32-p271:32:32-p272:64:64-i64:64-i128:128-f80:128-n8:16:32:64-S128"
target triple = "x86_64-pc-linux-gnu"

%struct.Curl_sockaddr_ex = type { i32, i32, i32, i32, %union.anon }
%union.anon = type { %struct.Curl_sockaddr_storage }
%struct.Curl_sockaddr_storage = type { %union.anon.0 }
%union.anon.0 = type { %struct.sockaddr_storage }
%struct.sockaddr_storage = type { i16, [118 x i8], i64 }
%struct.Curl_easy = type { i32, i64, ptr, ptr, ptr, %struct.Curl_llist_element, %struct.Curl_llist_element, i32, i32, %struct.Curl_message, %struct.easy_pollset, %struct.Names, ptr, ptr, ptr, %struct.SingleRequest, %struct.UserDefined, ptr, ptr, %struct.Progress, %struct.UrlState, ptr, %struct.PureInfo, %struct.curl_tlssessioninfo }
%struct.Curl_llist_element = type { ptr, ptr, ptr }
%struct.Curl_message = type { %struct.Curl_llist_element, %struct.CURLMsg }
%struct.CURLMsg = type { i32, ptr, %union.anon.3 }
%union.anon.3 = type { ptr }
%struct.easy_pollset = type { [5 x i32], i32, [5 x i8] }
%struct.Names = type { ptr, i32 }
%struct.SingleRequest = type <{ i64, i64, i64, i64, i64, %struct.curltime, i32, i32, i32, i32, i64, i32, i32, %struct.curltime, i32, i32, ptr, i64, i64, ptr, ptr, i64, ptr, %union.anon.4, ptr, [2 x i8], i8, i16, [3 x i8] }>
%struct.curltime = type { i64, i32 }
%union.anon.4 = type { ptr }
%struct.UserDefined = type <{ ptr, ptr, ptr, ptr, ptr, ptr, i16, [6 x i8], i64, i64, i64, ptr, ptr, i64, i16, i16, [4 x i8], ptr, ptr, ptr, ptr, ptr, ptr, ptr, ptr, ptr, ptr, ptr, ptr, ptr, ptr, ptr, ptr, ptr, ptr, ptr, ptr, ptr, ptr, ptr, i32, i32, i32, i32, i64, i64, i64, i64, i64, i64, i64, i64, ptr, ptr, %struct.curl_mimepart, ptr, ptr, i64, i8, i8, i8, [5 x i8], %struct.ssl_config_data, %struct.ssl_config_data, ptr, i16, i8, i8, [4 x i8], %struct.ssl_general_config, i32, i32, i32, [4 x i8], ptr, ptr, i8, [7 x i8], i64, i8, i8, i8, i8, i32, ptr, ptr, ptr, i8, i8, [2 x i8], i32, [80 x ptr], [8 x ptr], i32, i32, i32, [4 x i8], ptr, ptr, ptr, ptr, ptr, i8, [3 x i8], i32, i32, [4 x i8], i64, %struct.Curl_data_priority, ptr, ptr, i64, ptr, ptr, ptr, ptr, ptr, i8, [3 x i8], i32, i8, i8, i56, [6 x i8] }>
%struct.curl_mimepart = type { ptr, ptr, i32, i32, ptr, ptr, ptr, ptr, ptr, ptr, ptr, ptr, ptr, ptr, ptr, i64, %struct.mime_state, ptr, %struct.mime_encoder_state, i64 }
%struct.mime_state = type { i32, ptr, i64 }
%struct.mime_encoder_state = type { i64, i64, i64, [256 x i8] }
%struct.ssl_config_data = type { %struct.ssl_primary_config, i64, ptr, ptr, ptr, ptr, ptr, ptr, ptr, i8 }
%struct.ssl_primary_config = type { ptr, ptr, ptr, ptr, ptr, ptr, ptr, ptr, ptr, ptr, ptr, ptr, i8, i32, i8, i8 }
%struct.ssl_general_config = type { i64, i32 }
%struct.Curl_data_priority = type { ptr, ptr, i32, i8 }
%struct.Progress = type { i64, i64, i64, i64, i64, i64, i32, i32, i64, i64, i64, i64, i64, i64, i64, i64, i64, i64, %struct.curltime, %struct.curltime, %struct.curltime, %struct.curltime, %struct.curltime, i64, %struct.curltime, i64, [6 x i64], [6 x %struct.curltime], i32, i8 }
%struct.UrlState = type { ptr, %struct.curltime, i64, i64, %struct.dynbuf, ptr, ptr, ptr, i64, ptr, i32, i32, i32, ptr, i64, [3 x %struct.tempbuf], i32, i32, ptr, i64, i32, ptr, %struct.digestdata, %struct.digestdata, %struct.auth, %struct.auth, %struct.Curl_async, ptr, %struct.curltime, %struct.Curl_tree, %struct.Curl_llist, [15 x %struct.time_node], ptr, i8, i64, ptr, i64, i64, %struct.Curl_data_priority, ptr, ptr, ptr, %struct.urlpieces, ptr, ptr, ptr, ptr, ptr, i64, %struct.dynbuf, %struct.Curl_llist, [2 x %struct.curl_header], ptr, i32, ptr, %struct.dynamically_allocated_data, i8, i8, i8, i8, i24 }
%struct.tempbuf = type { %struct.dynbuf, i32, i8 }
%struct.digestdata = type { ptr, ptr, ptr, ptr, ptr, ptr, i32, i8, i8 }
%struct.auth = type { i64, i64, i64, i8 }
%struct.Curl_async = type { ptr, ptr, ptr, ptr, i32, i32, i8 }
%struct.Curl_tree = type { ptr, ptr, ptr, ptr, %struct.curltime, ptr }
%struct.time_node = type { %struct.Curl_llist_element, %struct.curltime, i32 }
%struct.urlpieces = type { ptr, ptr, ptr, ptr, ptr, ptr, ptr, ptr }
%struct.dynbuf = type { ptr, i64, i64, i64 }
%struct.Curl_llist = type { ptr, ptr, ptr, i64 }
%struct.curl_header = type { ptr, ptr, i64, i64, i32, ptr }
%struct.dynamically_allocated_data = type { ptr, ptr, ptr, ptr, ptr, ptr, ptr, ptr, ptr, ptr, ptr, ptr, ptr, ptr }
%struct.PureInfo = type { i32, i32, i32, i64, i64, i64, i64, i64, ptr, ptr, i64, i32, [46 x i8], i32, i32, [46 x i8], i32, ptr, i32, %struct.curl_certinfo, i32, i8 }
%struct.curl_certinfo = type { i32, ptr }
%struct.curl_tlssessioninfo = type { i32, ptr }
%struct.connectdata = type { %struct.Curl_llist_element, ptr, ptr, i64, ptr, ptr, %struct.hostname, ptr, ptr, %struct.hostname, %struct.proxy_info, %struct.proxy_info, [46 x i8], ptr, ptr, ptr, ptr, ptr, %struct.curltime, %struct.curltime, %struct.curltime, [2 x i32], [2 x ptr], [2 x ptr], [2 x ptr], %struct.ssl_primary_config, %struct.ssl_primary_config, %struct.ConnectBits, ptr, ptr, %struct.curltime, i32, i32, %struct.Curl_llist, ptr, ptr, i32, i32, %struct.ntlmdata, %struct.ntlmdata, %union.anon.2, ptr, ptr, i16, i32, i32, i32, i32, i32, i16, i16, i8, i8, i8, i8, i8, i8, i8 }
%struct.hostname = type { ptr, ptr, ptr, ptr }
%struct.proxy_info = type { %struct.hostname, i32, i8, ptr, ptr }
%struct.ConnectBits = type { i32 }
%struct.ntlmdata = type { i32, [8 x i8], i32, ptr }
%union.anon.2 = type { %struct.ftp_conn }
%struct.ftp_conn = type { %struct.pingpong, ptr, ptr, ptr, ptr, ptr, ptr, ptr, i8, i64, ptr, i64, i32, i32, i32, i32, i32, i16, i8, i8, i8, i8, i8 }
%struct.pingpong = type { i64, i8, ptr, i64, i64, %struct.curltime, i64, %struct.dynbuf, %struct.dynbuf, i64, i64, ptr, ptr }
%struct.Curl_cfilter = type { ptr, ptr, ptr, ptr, i32, i8 }
%struct.cf_socket_ctx = type { i32, %struct.Curl_sockaddr_ex, i32, %struct.bufq, [46 x i8], i32, [46 x i8], i32, %struct.curltime, %struct.curltime, %struct.curltime, i32, i8 }
%struct.bufq = type { ptr, ptr, ptr, ptr, i64, i64, i64, i32 }
%struct.Curl_handler = type { ptr, ptr, ptr, ptr, ptr, ptr, ptr, ptr, ptr, ptr, ptr, ptr, ptr, ptr, ptr, ptr, i32, i32, i32, i32 }

@.str.26 = private unnamed_addr constant [39 x i8] c"getsockname() failed with errno %d: %s\00", align 1
@.str.52 = private unnamed_addr constant [43 x i8] c"ssloc inet_ntop() failed with errno %d: %s\00", align 1

; Function Attrs: nounwind uwtable
define internal i32 @set_local_ip(ptr noundef %0, ptr noundef %1) #0 {
  %3 = alloca i32, align 4
  %4 = alloca ptr, align 8
  %5 = alloca ptr, align 8
  %6 = alloca ptr, align 8
  %7 = alloca [256 x i8], align 16
  %8 = alloca %struct.Curl_sockaddr_storage, align 8
  %9 = alloca i32, align 4
  %10 = alloca i32, align 4
  store ptr %0, ptr %4, align 8
  store ptr %1, ptr %5, align 8
  %11 = load ptr, ptr %4, align 8
  %12 = getelementptr inbounds %struct.Curl_cfilter, ptr %11, i32 0, i32 2
  %13 = load ptr, ptr %12, align 8
  store ptr %13, ptr %6, align 8
  %14 = load ptr, ptr %5, align 8
  %15 = getelementptr inbounds %struct.Curl_easy, ptr %14, i32 0, i32 4
  %16 = load ptr, ptr %15, align 8
  %17 = getelementptr inbounds %struct.connectdata, ptr %16, i32 0, i32 28
  %18 = load ptr, ptr %17, align 8
  %19 = getelementptr inbounds %struct.Curl_handler, ptr %18, i32 0, i32 17
  %20 = load i32, ptr %19, align 4
  %21 = and i32 %20, 2048
  %22 = icmp ne i32 %21, 0
  br i1 %22, label %54, label %23

23:                                               ; preds = %2
  store i32 128, ptr %9, align 4
  call void @llvm.memset.p0.i64(ptr align 8 %8, i8 0, i64 128, i1 false)
  %24 = load ptr, ptr %6, align 8
  %25 = getelementptr inbounds %struct.cf_socket_ctx, ptr %24, i32 0, i32 2
  %26 = load i32, ptr %25, align 8
  %27 = call i32 @getsockname(i32 noundef %26, ptr noundef %8, ptr noundef %9) #7
  %28 = icmp ne i32 %27, 0
  br i1 %28, label %29, label %37

29:                                               ; preds = %23
  %30 = call ptr @__errno_location() #8
  %31 = load i32, ptr %30, align 4
  store i32 %31, ptr %10, align 4
  %32 = load ptr, ptr %5, align 8
  %33 = load i32, ptr %10, align 4
  %34 = load i32, ptr %10, align 4
  %35 = getelementptr inbounds [256 x i8], ptr %7, i64 0, i64 0
  %36 = call ptr @Curl_strerror(i32 noundef %34, ptr noundef %35, i64 noundef 256)
  call void (ptr, ptr, ...) @Curl_failf(ptr noundef %32, ptr noundef @.str.26, i32 noundef %33, ptr noundef %36)
  store i32 2, ptr %3, align 4
  br label %55

37:                                               ; preds = %23
  %38 = load i32, ptr %9, align 4
  %39 = load ptr, ptr %6, align 8
  %40 = getelementptr inbounds %struct.cf_socket_ctx, ptr %39, i32 0, i32 6
  %41 = getelementptr inbounds [46 x i8], ptr %40, i64 0, i64 0
  %42 = load ptr, ptr %6, align 8
  %43 = getelementptr inbounds %struct.cf_socket_ctx, ptr %42, i32 0, i32 7
  %44 = call zeroext i1 @Curl_addr2string(ptr noundef %8, i32 noundef %38, ptr noundef %41, ptr noundef %43)
  br i1 %44, label %53, label %45

45:                                               ; preds = %37
  %46 = load ptr, ptr %5, align 8
  %47 = call ptr @__errno_location() #8
  %48 = load i32, ptr %47, align 4
  %49 = call ptr @__errno_location() #8
  %50 = load i32, ptr %49, align 4
  %51 = getelementptr inbounds [256 x i8], ptr %7, i64 0, i64 0
  %52 = call ptr @Curl_strerror(i32 noundef %50, ptr noundef %51, i64 noundef 256)
  call void (ptr, ptr, ...) @Curl_failf(ptr noundef %46, ptr noundef @.str.52, i32 noundef %48, ptr noundef %52)
  store i32 2, ptr %3, align 4
  br label %55

53:                                               ; preds = %37
  br label %54

54:                                               ; preds = %53, %2
  store i32 0, ptr %3, align 4
  br label %55

55:                                               ; preds = %54, %45, %29
  %56 = load i32, ptr %3, align 4
  ret i32 %56
}