; Function Attrs: nounwind uwtable
define internal fastcc void @set_local_ip(ptr %.16.val, ptr noundef %0) unnamed_addr #2 {
  %2 = alloca [256 x i8], align 16
  %3 = alloca %struct.Curl_sockaddr_storage, align 8
  %4 = alloca i32, align 4
  %5 = getelementptr inbounds nuw i8, ptr %0, i64 32
  %6 = load ptr, ptr %5, align 8
  %7 = getelementptr inbounds nuw i8, ptr %6, i64 680
  %8 = load ptr, ptr %7, align 8
  %9 = getelementptr inbounds nuw i8, ptr %8, i64 132
  %10 = load i32, ptr %9, align 4
  %11 = and i32 %10, 2048
  %.not = icmp eq i32 %11, 0
  br i1 %.not, label %12, label %24

12:                                               ; preds = %1
  store i32 128, ptr %4, align 4
  call void @llvm.memset.p0.i64(ptr noundef nonnull align 8 dereferenceable(128) %3, i8 0, i64 128, i1 false)
  %13 = getelementptr inbounds nuw i8, ptr %.16.val, i64 152
  %14 = load i32, ptr %13, align 8
  %15 = call i32 @getsockname(i32 noundef %14, ptr noundef nonnull %3, ptr noundef nonnull %4) #13
  %.not9 = icmp eq i32 %15, 0
  br i1 %.not9, label %16, label %.sink.split

16:                                               ; preds = %12
  %17 = load i32, ptr %4, align 4
  %18 = getelementptr inbounds nuw i8, ptr %.16.val, i64 276
  %19 = getelementptr inbounds nuw i8, ptr %.16.val, i64 324
  %20 = call zeroext i1 @Curl_addr2string(ptr noundef nonnull %3, i32 noundef %17, ptr noundef nonnull %18, ptr noundef nonnull %19) #13
  br i1 %20, label %24, label %.sink.split

.sink.split:                                      ; preds = %16, %12
  %.str.52.sink = phi ptr [ @.str.26, %12 ], [ @.str.52, %16 ]
  %21 = tail call ptr @__errno_location() #14
  %22 = load i32, ptr %21, align 4
  %23 = call ptr @Curl_strerror(i32 noundef %22, ptr noundef nonnull %2, i64 noundef 256) #13
  call void (ptr, ptr, ...) @Curl_failf(ptr noundef nonnull %0, ptr noundef nonnull %.str.52.sink, i32 noundef %22, ptr noundef %23) #13
  br label %24

24:                                               ; preds = %.sink.split, %1, %16
  ret void
}